; Function Attrs: mustprogress nounwind uwtable
define hidden noundef ptr @_ZN14LibraryCallKit23generate_virtual_threadEP4Node(ptr noundef nonnull align 8 dereferenceable(108) %0, ptr nocapture noundef readnone %1) local_unnamed_addr #0 align 2 {
  %3 = alloca ptr, align 8
  %4 = getelementptr inbounds i8, ptr %0, i64 16
  %5 = load ptr, ptr %4, align 8
  %6 = getelementptr inbounds i8, ptr %5, i64 32
  %7 = load ptr, ptr %6, align 8
  %8 = getelementptr inbounds i8, ptr %7, i64 16
  %9 = load ptr, ptr %8, align 8
  %10 = getelementptr inbounds i8, ptr %9, i64 8
  %11 = load ptr, ptr %10, align 8
  %12 = getelementptr inbounds i8, ptr %11, i64 28
  %13 = load i32, ptr %12, align 4
  %14 = and i32 %13, 131072
  %.not = icmp eq i32 %14, 0
  %15 = call noundef ptr @_ZN14LibraryCallKit21current_thread_helperERP4Node8ByteSizeb(ptr noundef nonnull align 8 dereferenceable(108) %0, ptr noundef nonnull align 8 dereferenceable(8) %3, i32 noundef 904, i1 noundef zeroext %.not)
  ret ptr %15
}